target datalayout = "e-m:e-p270:32:32-p271:32:32-p272:64:64-i64:64-i128:128-f80:128-n8:16:32:64-S128"
target triple = "x86_64-pc-linux-gnu"

@proto_register_idrp.ett = internal global [2 x ptr] [ptr @ett_idrp, ptr @ett_idrp_sub], align 16
@.str.171 = private unnamed_addr constant [53 x i8] c"ISO/IEC 10747 (1993): Inter Domain Routing Protocol \00", align 1
@.str.172 = private unnamed_addr constant [5 x i8] c"IDRP\00", align 1
@.str.173 = private unnamed_addr constant [5 x i8] c"idrp\00", align 1
@proto_idrp = internal global i32 0, align 4

; Function Attrs: null_pointer_is_valid sspstrong uwtable
define hidden void @proto_register_idrp() #0 {
  %1 = alloca ptr, align 8
  call void @llvm.lifetime.start.p0(i64 8, ptr %1) #3
  %2 = call i32 @proto_register_protocol(ptr noundef @.str.171, ptr noundef @.str.172, ptr noundef @.str.173)
  store i32 %2, ptr @proto_idrp, align 4
  %3 = load i32, ptr @proto_idrp, align 4
  call void @proto_register_field_array(i32 noundef %3, ptr noundef @proto_register_idrp.hf_idrp, i32 noundef 72)
  call void @proto_register_subtree_array(ptr noundef @proto_register_idrp.ett, i32 noundef 2)
  %4 = load i32, ptr @proto_idrp, align 4
  %5 = call ptr @expert_register_protocol(i32 noundef %4)
  store ptr %5, ptr %1, align 8
  %6 = load ptr, ptr %1, align 8
  call void @expert_register_field_array(ptr noundef %6, ptr noundef @proto_register_idrp.ei, i32 noundef 1)
  %7 = load i32, ptr @proto_idrp, align 4
  %8 = call ptr @register_dissector(ptr noundef @.str.173, ptr noundef @dissect_idrp, i32 noundef %7)
  call void @llvm.lifetime.end.p0(i64 8, ptr %1) #3
  ret void
}